target datalayout = "e-m:e-p270:32:32-p271:32:32-p272:64:64-i64:64-i128:128-f80:128-n8:16:32:64-S128"
target triple = "x86_64-pc-linux-gnu"

@.str.23 = private unnamed_addr constant [2 x i8] c"|\00", align 1
@.str.24 = private unnamed_addr constant [3 x i8] c"%f\00", align 1

; Function Attrs: nounwind uwtable
define internal void @fill_items(ptr noundef %0, ptr noundef %1, ptr noundef %2) #1 {
  %4 = alloca ptr, align 8
  %5 = alloca ptr, align 8
  %6 = alloca ptr, align 8
  %7 = alloca ptr, align 8
  %8 = alloca ptr, align 8
  %9 = alloca i32, align 4
  %10 = alloca i32, align 4
  %11 = alloca ptr, align 8
  store ptr %0, ptr %4, align 8, !tbaa !69
  store ptr %1, ptr %5, align 8, !tbaa !86
  store ptr %2, ptr %6, align 8, !tbaa !75
  call void @llvm.lifetime.start.p0(i64 8, ptr %7) #8
  call void @llvm.lifetime.start.p0(i64 8, ptr %8) #8
  store ptr null, ptr %8, align 8, !tbaa !69
  call void @llvm.lifetime.start.p0(i64 4, ptr %9) #8
  call void @llvm.lifetime.start.p0(i64 4, ptr %10) #8
  store i32 0, ptr %10, align 4, !tbaa !33
  %12 = load ptr, ptr %4, align 8, !tbaa !69
  store ptr %12, ptr %7, align 8, !tbaa !69
  store i32 0, ptr %9, align 4, !tbaa !33
  br label %13

13:                                               ; preds = %35, %3
  %14 = load i32, ptr %9, align 4, !tbaa !33
  %15 = load ptr, ptr %5, align 8, !tbaa !86
  %16 = load i32, ptr %15, align 4, !tbaa !33
  %17 = icmp slt i32 %14, %16
  br i1 %17, label %18, label %38

18:                                               ; preds = %13
  call void @llvm.lifetime.start.p0(i64 8, ptr %11) #8
  %19 = load ptr, ptr %7, align 8, !tbaa !69
  %20 = call ptr @av_strtok(ptr noundef %19, ptr noundef @.str.23, ptr noundef %8)
  store ptr %20, ptr %11, align 8, !tbaa !69
  store ptr null, ptr %7, align 8, !tbaa !69
  %21 = load ptr, ptr %11, align 8, !tbaa !69
  %22 = icmp ne ptr %21, null
  br i1 %22, label %23, label %34

23:                                               ; preds = %18
  %24 = load ptr, ptr %11, align 8, !tbaa !69
  %25 = load ptr, ptr %6, align 8, !tbaa !75
  %26 = load i32, ptr %10, align 4, !tbaa !33
  %27 = sext i32 %26 to i64
  %28 = getelementptr inbounds float, ptr %25, i64 %27
  %29 = call i32 (ptr, ptr, ...) @av_sscanf(ptr noundef %24, ptr noundef @.str.24, ptr noundef %28)
  %30 = icmp eq i32 %29, 1
  %31 = zext i1 %30 to i32
  %32 = load i32, ptr %10, align 4, !tbaa !33
  %33 = add nsw i32 %32, %31
  store i32 %33, ptr %10, align 4, !tbaa !33
  br label %34

34:                                               ; preds = %23, %18
  call void @llvm.lifetime.end.p0(i64 8, ptr %11) #8
  br label %35

35:                                               ; preds = %34
  %36 = load i32, ptr %9, align 4, !tbaa !33
  %37 = add nsw i32 %36, 1
  store i32 %37, ptr %9, align 4, !tbaa !33
  br label %13, !llvm.loop !92

38:                                               ; preds = %13
  %39 = load i32, ptr %10, align 4, !tbaa !33
  %40 = load ptr, ptr %5, align 8, !tbaa !86
  store i32 %39, ptr %40, align 4, !tbaa !33
  call void @llvm.lifetime.end.p0(i64 4, ptr %10) #8
  call void @llvm.lifetime.end.p0(i64 4, ptr %9) #8
  call void @llvm.lifetime.end.p0(i64 8, ptr %8) #8
  call void @llvm.lifetime.end.p0(i64 8, ptr %7) #8
  ret void
}